target datalayout = "e-m:e-p270:32:32-p271:32:32-p272:64:64-i64:64-i128:128-f80:128-n8:16:32:64-S128"
target triple = "x86_64-pc-linux-gnu"

%struct.expert_field = type { i32, i32 }

@ei_gsm_a_rr_data_not_dissected = internal global %struct.expert_field zeroinitializer, align 4
@hf_gsm_a_rr_chnl_needed_ch3 = internal global i32 0, align 4
@hf_gsm_a_rr_nln_pch = internal global i32 0, align 4
@hf_gsm_a_rr_nln_status_pch = internal global i32 0, align 4
@hf_gsm_a_rr_nln_pch_present = internal global i32 0, align 4
@hf_gsm_a_call_prio1 = internal global i32 0, align 4
@hf_gsm_a_call_prio2 = internal global i32 0, align 4
@hf_gsm_a_rr_chnl_needed_ch3_present = internal global i32 0, align 4
@hf_gsm_a_call_prio3 = internal global i32 0, align 4
@hf_gsm_a_rr_packet_paging_procedure_1 = internal global i32 0, align 4
@hf_gsm_a_rr_packet_paging_procedure_2 = internal global i32 0, align 4
@hf_gsm_a_rr_packet_paging_procedure_3 = internal global i32 0, align 4
@hf_gsm_a_rr_additions_in_release_6_present = internal global i32 0, align 4
@hf_gsm_a_call_prio = external global i32, align 4
@.str.1824 = private unnamed_addr constant [23 x i8] c" for Mobile Identity 1\00", align 1
@.str.1825 = private unnamed_addr constant [23 x i8] c" for Mobile Identity 2\00", align 1
@.str.1827 = private unnamed_addr constant [23 x i8] c" for Mobile Identity 3\00", align 1
@.str.1828 = private unnamed_addr constant [43 x i8] c"Additions in Release 6: Data (Not decoded)\00", align 1

; Function Attrs: null_pointer_is_valid sspstrong uwtable
define internal zeroext i16 @de_rr_p2_rest_oct(ptr noundef %0, ptr noundef %1, ptr noundef %2, i32 noundef %3, i32 noundef %4, ptr noundef %5, i32 noundef %6) #1 {
  %8 = alloca ptr, align 8
  %9 = alloca ptr, align 8
  %10 = alloca ptr, align 8
  %11 = alloca i32, align 4
  %12 = alloca i32, align 4
  %13 = alloca ptr, align 8
  %14 = alloca i32, align 4
  %15 = alloca ptr, align 8
  %16 = alloca i32, align 4
  %17 = alloca i32, align 4
  %18 = alloca i8, align 1
  %19 = alloca i16, align 2
  store ptr %0, ptr %8, align 8
  store ptr %1, ptr %9, align 8
  store ptr %2, ptr %10, align 8
  store i32 %3, ptr %11, align 4
  store i32 %4, ptr %12, align 4
  store ptr %5, ptr %13, align 8
  store i32 %6, ptr %14, align 4
  call void @llvm.lifetime.start.p0(i64 8, ptr %15) #11
  call void @llvm.lifetime.start.p0(i64 4, ptr %16) #11
  call void @llvm.lifetime.start.p0(i64 4, ptr %17) #11
  call void @llvm.lifetime.start.p0(i64 1, ptr %18) #11
  %20 = load ptr, ptr %8, align 8
  %21 = call i32 @tvb_reported_length(ptr noundef %20)
  %22 = trunc i32 %21 to i8
  store i8 %22, ptr %18, align 1
  call void @llvm.lifetime.start.p0(i64 2, ptr %19) #11
  %23 = load i8, ptr %18, align 1
  %24 = zext i8 %23 to i32
  %25 = shl i32 %24, 3
  %26 = trunc i32 %25 to i16
  store i16 %26, ptr %19, align 2
  %27 = load i32, ptr %11, align 4
  store i32 %27, ptr %16, align 4
  %28 = load i32, ptr %16, align 4
  %29 = shl i32 %28, 3
  store i32 %29, ptr %17, align 4
  %30 = load ptr, ptr %8, align 8
  %31 = load ptr, ptr %9, align 8
  %32 = load i16, ptr %19, align 2
  %33 = zext i16 %32 to i32
  %34 = load i32, ptr %17, align 4
  %35 = add i32 %34, 1
  store i32 %35, ptr %17, align 4
  %36 = load i32, ptr @hf_gsm_a_rr_chnl_needed_ch3_present, align 4
  %37 = call zeroext i1 @gsm_rr_csn_HL_flag(ptr noundef %30, ptr noundef %31, i32 noundef %33, i32 noundef %34, i32 noundef %36)
  br i1 %37, label %38, label %46

38:                                               ; preds = %7
  %39 = load ptr, ptr %9, align 8
  %40 = load i32, ptr @hf_gsm_a_rr_chnl_needed_ch3, align 4
  %41 = load ptr, ptr %8, align 8
  %42 = load i32, ptr %17, align 4
  %43 = call ptr @proto_tree_add_bits_item(ptr noundef %39, i32 noundef %40, ptr noundef %41, i32 noundef %42, i32 noundef 2, i32 noundef 0)
  %44 = load i32, ptr %17, align 4
  %45 = add i32 %44, 2
  store i32 %45, ptr %17, align 4
  br label %46

46:                                               ; preds = %38, %7
  %47 = load ptr, ptr %8, align 8
  %48 = load ptr, ptr %9, align 8
  %49 = load i16, ptr %19, align 2
  %50 = zext i16 %49 to i32
  %51 = load i32, ptr %17, align 4
  %52 = add i32 %51, 1
  store i32 %52, ptr %17, align 4
  %53 = load i32, ptr @hf_gsm_a_rr_nln_pch_present, align 4
  %54 = call zeroext i1 @gsm_rr_csn_HL_flag(ptr noundef %47, ptr noundef %48, i32 noundef %50, i32 noundef %51, i32 noundef %53)
  br i1 %54, label %55, label %70

55:                                               ; preds = %46
  %56 = load ptr, ptr %9, align 8
  %57 = load i32, ptr @hf_gsm_a_rr_nln_pch, align 4
  %58 = load ptr, ptr %8, align 8
  %59 = load i32, ptr %17, align 4
  %60 = call ptr @proto_tree_add_bits_item(ptr noundef %56, i32 noundef %57, ptr noundef %58, i32 noundef %59, i32 noundef 2, i32 noundef 0)
  %61 = load i32, ptr %17, align 4
  %62 = add i32 %61, 2
  store i32 %62, ptr %17, align 4
  %63 = load ptr, ptr %9, align 8
  %64 = load i32, ptr @hf_gsm_a_rr_nln_status_pch, align 4
  %65 = load ptr, ptr %8, align 8
  %66 = load i32, ptr %17, align 4
  %67 = call ptr @proto_tree_add_bits_item(ptr noundef %63, i32 noundef %64, ptr noundef %65, i32 noundef %66, i32 noundef 1, i32 noundef 0)
  %68 = load i32, ptr %17, align 4
  %69 = add i32 %68, 1
  store i32 %69, ptr %17, align 4
  br label %70

70:                                               ; preds = %55, %46
  %71 = load ptr, ptr %8, align 8
  %72 = load ptr, ptr %9, align 8
  %73 = load i16, ptr %19, align 2
  %74 = zext i16 %73 to i32
  %75 = load i32, ptr %17, align 4
  %76 = add i32 %75, 1
  store i32 %76, ptr %17, align 4
  %77 = load i32, ptr @hf_gsm_a_call_prio1, align 4
  %78 = call zeroext i1 @gsm_rr_csn_HL_flag(ptr noundef %71, ptr noundef %72, i32 noundef %74, i32 noundef %75, i32 noundef %77)
  br i1 %78, label %79, label %88

79:                                               ; preds = %70
  %80 = load ptr, ptr %9, align 8
  %81 = load i32, ptr @hf_gsm_a_call_prio, align 4
  %82 = load ptr, ptr %8, align 8
  %83 = load i32, ptr %17, align 4
  %84 = call ptr @proto_tree_add_bits_item(ptr noundef %80, i32 noundef %81, ptr noundef %82, i32 noundef %83, i32 noundef 3, i32 noundef 0)
  store ptr %84, ptr %15, align 8
  %85 = load i32, ptr %17, align 4
  %86 = add i32 %85, 3
  store i32 %86, ptr %17, align 4
  %87 = load ptr, ptr %15, align 8
  call void (ptr, ptr, ...) @proto_item_append_text(ptr noundef %87, ptr noundef @.str.1824)
  br label %88

88:                                               ; preds = %79, %70
  %89 = load ptr, ptr %8, align 8
  %90 = load ptr, ptr %9, align 8
  %91 = load i16, ptr %19, align 2
  %92 = zext i16 %91 to i32
  %93 = load i32, ptr %17, align 4
  %94 = add i32 %93, 1
  store i32 %94, ptr %17, align 4
  %95 = load i32, ptr @hf_gsm_a_call_prio2, align 4
  %96 = call zeroext i1 @gsm_rr_csn_HL_flag(ptr noundef %89, ptr noundef %90, i32 noundef %92, i32 noundef %93, i32 noundef %95)
  br i1 %96, label %97, label %106

97:                                               ; preds = %88
  %98 = load ptr, ptr %9, align 8
  %99 = load i32, ptr @hf_gsm_a_call_prio, align 4
  %100 = load ptr, ptr %8, align 8
  %101 = load i32, ptr %17, align 4
  %102 = call ptr @proto_tree_add_bits_item(ptr noundef %98, i32 noundef %99, ptr noundef %100, i32 noundef %101, i32 noundef 3, i32 noundef 0)
  store ptr %102, ptr %15, align 8
  %103 = load i32, ptr %17, align 4
  %104 = add i32 %103, 3
  store i32 %104, ptr %17, align 4
  %105 = load ptr, ptr %15, align 8
  call void (ptr, ptr, ...) @proto_item_append_text(ptr noundef %105, ptr noundef @.str.1825)
  br label %106

106:                                              ; preds = %97, %88
  %107 = load ptr, ptr %8, align 8
  %108 = load ptr, ptr %9, align 8
  %109 = load i16, ptr %19, align 2
  %110 = zext i16 %109 to i32
  %111 = load i32, ptr %17, align 4
  %112 = add i32 %111, 1
  store i32 %112, ptr %17, align 4
  %113 = load i32, ptr @hf_gsm_a_call_prio3, align 4
  %114 = call zeroext i1 @gsm_rr_csn_HL_flag(ptr noundef %107, ptr noundef %108, i32 noundef %110, i32 noundef %111, i32 noundef %113)
  br i1 %114, label %115, label %124

115:                                              ; preds = %106
  %116 = load ptr, ptr %9, align 8
  %117 = load i32, ptr @hf_gsm_a_call_prio, align 4
  %118 = load ptr, ptr %8, align 8
  %119 = load i32, ptr %17, align 4
  %120 = call ptr @proto_tree_add_bits_item(ptr noundef %116, i32 noundef %117, ptr noundef %118, i32 noundef %119, i32 noundef 3, i32 noundef 0)
  store ptr %120, ptr %15, align 8
  %121 = load i32, ptr %17, align 4
  %122 = add i32 %121, 3
  store i32 %122, ptr %17, align 4
  %123 = load ptr, ptr %15, align 8
  call void (ptr, ptr, ...) @proto_item_append_text(ptr noundef %123, ptr noundef @.str.1827)
  br label %124

124:                                              ; preds = %115, %106
  %125 = load ptr, ptr %8, align 8
  %126 = load ptr, ptr %9, align 8
  %127 = load i16, ptr %19, align 2
  %128 = zext i16 %127 to i32
  %129 = load i32, ptr %17, align 4
  %130 = add i32 %129, 1
  store i32 %130, ptr %17, align 4
  %131 = load i32, ptr @hf_gsm_a_rr_packet_paging_procedure_1, align 4
  %132 = call zeroext i1 @gsm_rr_csn_HL_flag(ptr noundef %125, ptr noundef %126, i32 noundef %128, i32 noundef %129, i32 noundef %131)
  %133 = load ptr, ptr %8, align 8
  %134 = load ptr, ptr %9, align 8
  %135 = load i16, ptr %19, align 2
  %136 = zext i16 %135 to i32
  %137 = load i32, ptr %17, align 4
  %138 = add i32 %137, 1
  store i32 %138, ptr %17, align 4
  %139 = load i32, ptr @hf_gsm_a_rr_packet_paging_procedure_2, align 4
  %140 = call zeroext i1 @gsm_rr_csn_HL_flag(ptr noundef %133, ptr noundef %134, i32 noundef %136, i32 noundef %137, i32 noundef %139)
  %141 = load ptr, ptr %8, align 8
  %142 = load ptr, ptr %9, align 8
  %143 = load i16, ptr %19, align 2
  %144 = zext i16 %143 to i32
  %145 = load i32, ptr %17, align 4
  %146 = add i32 %145, 1
  store i32 %146, ptr %17, align 4
  %147 = load i32, ptr @hf_gsm_a_rr_packet_paging_procedure_3, align 4
  %148 = call zeroext i1 @gsm_rr_csn_HL_flag(ptr noundef %141, ptr noundef %142, i32 noundef %144, i32 noundef %145, i32 noundef %147)
  %149 = load ptr, ptr %8, align 8
  %150 = load ptr, ptr %9, align 8
  %151 = load i16, ptr %19, align 2
  %152 = zext i16 %151 to i32
  %153 = load i32, ptr %17, align 4
  %154 = add i32 %153, 1
  store i32 %154, ptr %17, align 4
  %155 = load i32, ptr @hf_gsm_a_rr_additions_in_release_6_present, align 4
  %156 = call zeroext i1 @gsm_rr_csn_HL_flag(ptr noundef %149, ptr noundef %150, i32 noundef %152, i32 noundef %153, i32 noundef %155)
  br i1 %156, label %157, label %166

157:                                              ; preds = %124
  %158 = load i32, ptr %17, align 4
  %159 = add i32 %158, 1
  store i32 %159, ptr %17, align 4
  %160 = load ptr, ptr %9, align 8
  %161 = load ptr, ptr %10, align 8
  %162 = load ptr, ptr %8, align 8
  %163 = load i32, ptr %17, align 4
  %164 = ashr i32 %163, 3
  %165 = call ptr (ptr, ptr, ptr, ptr, i32, i32, ptr, ...) @proto_tree_add_expert_format(ptr noundef %160, ptr noundef %161, ptr noundef @ei_gsm_a_rr_data_not_dissected, ptr noundef %162, i32 noundef %164, i32 noundef -1, ptr noundef @.str.1828)
  br label %166

166:                                              ; preds = %157, %124
  %167 = load ptr, ptr %9, align 8
  %168 = load ptr, ptr %8, align 8
  %169 = load i32, ptr %17, align 4
  %170 = trunc i32 %169 to i16
  %171 = load i8, ptr %18, align 1
  call void @gsm_rr_padding_bits(ptr noundef %167, ptr noundef %168, i16 noundef zeroext %170, i8 noundef zeroext %171, i8 noundef zeroext 43)
  %172 = load i8, ptr %18, align 1
  %173 = zext i8 %172 to i32
  %174 = load i32, ptr %11, align 4
  %175 = sub i32 %173, %174
  %176 = trunc i32 %175 to i16
  call void @llvm.lifetime.end.p0(i64 2, ptr %19) #11
  call void @llvm.lifetime.end.p0(i64 1, ptr %18) #11
  call void @llvm.lifetime.end.p0(i64 4, ptr %17) #11
  call void @llvm.lifetime.end.p0(i64 4, ptr %16) #11
  call void @llvm.lifetime.end.p0(i64 8, ptr %15) #11
  ret i16 %176
}