; Function Attrs: null_pointer_is_valid sspstrong uwtable
define internal zeroext i16 @de_rr_p2_rest_oct(ptr noundef %0, ptr noundef %1, ptr noundef %2, i32 noundef %3, i32 %4, ptr readnone captures(none) %5, i32 %6) #3 {
  %8 = tail call i32 @tvb_reported_length(ptr noundef %0)
  %9 = and i32 %8, 255
  %10 = shl nuw nsw i32 %9, 3
  %11 = shl i32 %3, 3
  %12 = or disjoint i32 %11, 1
  %13 = load i32, ptr @hf_gsm_a_rr_chnl_needed_ch3_present, align 4
  %14 = tail call fastcc zeroext i1 @gsm_rr_csn_HL_flag(ptr noundef %0, ptr noundef %1, i32 noundef %10, i32 noundef %11, i32 noundef %13)
  br i1 %14, label %15, label %19

15:                                               ; preds = %7
  %16 = load i32, ptr @hf_gsm_a_rr_chnl_needed_ch3, align 4
  %17 = tail call ptr @proto_tree_add_bits_item(ptr noundef %1, i32 noundef %16, ptr noundef %0, i32 noundef %12, i32 noundef 2, i32 noundef 0)
  %18 = or disjoint i32 %11, 3
  br label %19

19:                                               ; preds = %15, %7
  %.0 = phi i32 [ %18, %15 ], [ %12, %7 ]
  %20 = add nuw i32 %.0, 1
  %21 = load i32, ptr @hf_gsm_a_rr_nln_pch_present, align 4
  %22 = tail call fastcc zeroext i1 @gsm_rr_csn_HL_flag(ptr noundef %0, ptr noundef %1, i32 noundef %10, i32 noundef %.0, i32 noundef %21)
  br i1 %22, label %23, label %30

23:                                               ; preds = %19
  %24 = load i32, ptr @hf_gsm_a_rr_nln_pch, align 4
  %25 = tail call ptr @proto_tree_add_bits_item(ptr noundef %1, i32 noundef %24, ptr noundef %0, i32 noundef %20, i32 noundef 2, i32 noundef 0)
  %26 = add nuw i32 %.0, 3
  %27 = load i32, ptr @hf_gsm_a_rr_nln_status_pch, align 4
  %28 = tail call ptr @proto_tree_add_bits_item(ptr noundef %1, i32 noundef %27, ptr noundef %0, i32 noundef %26, i32 noundef 1, i32 noundef 0)
  %29 = add nuw i32 %.0, 4
  br label %30

30:                                               ; preds = %23, %19
  %.1 = phi i32 [ %29, %23 ], [ %20, %19 ]
  %31 = add i32 %.1, 1
  %32 = load i32, ptr @hf_gsm_a_call_prio1, align 4
  %33 = tail call fastcc zeroext i1 @gsm_rr_csn_HL_flag(ptr noundef %0, ptr noundef %1, i32 noundef %10, i32 noundef %.1, i32 noundef %32)
  br i1 %33, label %34, label %38

34:                                               ; preds = %30
  %35 = load i32, ptr @hf_gsm_a_call_prio, align 4
  %36 = tail call ptr @proto_tree_add_bits_item(ptr noundef %1, i32 noundef %35, ptr noundef %0, i32 noundef %31, i32 noundef 3, i32 noundef 0)
  %37 = add i32 %.1, 4
  tail call void (ptr, ptr, ...) @proto_item_append_text(ptr noundef %36, ptr noundef nonnull @.str.1824)
  br label %38

38:                                               ; preds = %34, %30
  %.2 = phi i32 [ %37, %34 ], [ %31, %30 ]
  %39 = add i32 %.2, 1
  %40 = load i32, ptr @hf_gsm_a_call_prio2, align 4
  %41 = tail call fastcc zeroext i1 @gsm_rr_csn_HL_flag(ptr noundef %0, ptr noundef %1, i32 noundef %10, i32 noundef %.2, i32 noundef %40)
  br i1 %41, label %42, label %46

42:                                               ; preds = %38
  %43 = load i32, ptr @hf_gsm_a_call_prio, align 4
  %44 = tail call ptr @proto_tree_add_bits_item(ptr noundef %1, i32 noundef %43, ptr noundef %0, i32 noundef %39, i32 noundef 3, i32 noundef 0)
  %45 = add i32 %.2, 4
  tail call void (ptr, ptr, ...) @proto_item_append_text(ptr noundef %44, ptr noundef nonnull @.str.1825)
  br label %46

46:                                               ; preds = %42, %38
  %.3 = phi i32 [ %45, %42 ], [ %39, %38 ]
  %47 = add i32 %.3, 1
  %48 = load i32, ptr @hf_gsm_a_call_prio3, align 4
  %49 = tail call fastcc zeroext i1 @gsm_rr_csn_HL_flag(ptr noundef %0, ptr noundef %1, i32 noundef %10, i32 noundef %.3, i32 noundef %48)
  br i1 %49, label %50, label %54

50:                                               ; preds = %46
  %51 = load i32, ptr @hf_gsm_a_call_prio, align 4
  %52 = tail call ptr @proto_tree_add_bits_item(ptr noundef %1, i32 noundef %51, ptr noundef %0, i32 noundef %47, i32 noundef 3, i32 noundef 0)
  %53 = add i32 %.3, 4
  tail call void (ptr, ptr, ...) @proto_item_append_text(ptr noundef %52, ptr noundef nonnull @.str.1827)
  br label %54

54:                                               ; preds = %50, %46
  %.4 = phi i32 [ %53, %50 ], [ %47, %46 ]
  %55 = add i32 %.4, 1
  %56 = load i32, ptr @hf_gsm_a_rr_packet_paging_procedure_1, align 4
  %57 = tail call fastcc zeroext i1 @gsm_rr_csn_HL_flag(ptr noundef %0, ptr noundef %1, i32 noundef %10, i32 noundef %.4, i32 noundef %56)
  %58 = add i32 %.4, 2
  %59 = load i32, ptr @hf_gsm_a_rr_packet_paging_procedure_2, align 4
  %60 = tail call fastcc zeroext i1 @gsm_rr_csn_HL_flag(ptr noundef %0, ptr noundef %1, i32 noundef %10, i32 noundef %55, i32 noundef %59)
  %61 = add i32 %.4, 3
  %62 = load i32, ptr @hf_gsm_a_rr_packet_paging_procedure_3, align 4
  %63 = tail call fastcc zeroext i1 @gsm_rr_csn_HL_flag(ptr noundef %0, ptr noundef %1, i32 noundef %10, i32 noundef %58, i32 noundef %62)
  %64 = add i32 %.4, 4
  %65 = load i32, ptr @hf_gsm_a_rr_additions_in_release_6_present, align 4
  %66 = tail call fastcc zeroext i1 @gsm_rr_csn_HL_flag(ptr noundef %0, ptr noundef %1, i32 noundef %10, i32 noundef %61, i32 noundef %65)
  br i1 %66, label %67, label %71

67:                                               ; preds = %54
  %68 = add i32 %.4, 5
  %69 = ashr i32 %68, 3
  %70 = tail call ptr (ptr, ptr, ptr, ptr, i32, i32, ptr, ...) @proto_tree_add_expert_format(ptr noundef %1, ptr noundef %2, ptr noundef nonnull @ei_gsm_a_rr_data_not_dissected, ptr noundef %0, i32 noundef %69, i32 noundef -1, ptr noundef nonnull @.str.1828)
  br label %71

71:                                               ; preds = %67, %54
  %.5 = phi i32 [ %68, %67 ], [ %64, %54 ]
  %72 = trunc i32 %8 to i8
  %73 = trunc i32 %.5 to i16
  tail call fastcc void @gsm_rr_padding_bits(ptr noundef %1, ptr noundef %0, i16 noundef zeroext %73, i8 noundef zeroext %72, i8 noundef zeroext 43)
  %74 = sub i32 %9, %3
  %75 = trunc i32 %74 to i16
  ret i16 %75
}